target datalayout = "e-m:e-p270:32:32-p271:32:32-p272:64:64-i64:64-i128:128-f80:128-n8:16:32:64-S128"
target triple = "x86_64-pc-linux-gnu"

%struct.evthread_lock_callbacks = type { i32, i32, ptr, ptr, ptr, ptr }
%struct.event = type { %struct.event_callback, %union.anon.0, i32, i16, i16, ptr, %union.anon.2, %struct.timeval }
%struct.event_callback = type { %struct.anon, i16, i8, i8, %union.anon, ptr }
%struct.anon = type { ptr, ptr }
%union.anon = type { ptr }
%union.anon.0 = type { %struct.anon.1 }
%struct.anon.1 = type { ptr, ptr }
%union.anon.2 = type { %struct.anon.3 }
%struct.anon.3 = type { %struct.anon.4, %struct.timeval }
%struct.anon.4 = type { ptr, ptr }
%struct.timeval = type { i64, i64 }
%struct.tcp_connection = type { ptr, i32, i16 }
%struct.sockaddr_storage = type { i16, [118 x i8], i64 }
%struct.evdns_base = type { ptr, ptr, ptr, i32, ptr, i32, i32, i32, i32, %struct.timeval, i32, i32, i32, i32, i16, %struct.timeval, i16, %struct.timeval, %struct.sockaddr_storage, i32, %struct.timeval, i32, i32, i32, i32, i32, i32, ptr, %struct.hosts_list, %struct.evdns_tree, ptr, i32, i32, i32, i32 }
%struct.hosts_list = type { ptr, ptr }
%struct.evdns_tree = type { ptr }
%struct.nameserver = type { i32, ptr, %struct.sockaddr_storage, i32, i32, i32, %struct.event, ptr, ptr, %struct.event, ptr, i8, i8, i8, ptr, i32 }

@evthread_lock_fns_ = external global %struct.evthread_lock_callbacks, align 8

; Function Attrs: nounwind uwtable
define internal void @evdns_tcp_disconnect(ptr noundef %0) #0 {
  %2 = alloca ptr, align 8
  store ptr %0, ptr %2, align 8
  %3 = load ptr, ptr %2, align 8
  %4 = icmp ne ptr %3, null
  br i1 %4, label %6, label %5

5:                                                ; preds = %1
  br label %21

6:                                                ; preds = %1
  %7 = load ptr, ptr %2, align 8
  %8 = getelementptr inbounds nuw %struct.tcp_connection, ptr %7, i32 0, i32 1
  store i32 0, ptr %8, align 8
  %9 = load ptr, ptr %2, align 8
  %10 = getelementptr inbounds nuw %struct.tcp_connection, ptr %9, i32 0, i32 2
  store i16 0, ptr %10, align 4
  %11 = load ptr, ptr %2, align 8
  %12 = getelementptr inbounds nuw %struct.tcp_connection, ptr %11, i32 0, i32 0
  %13 = load ptr, ptr %12, align 8
  %14 = icmp ne ptr %13, null
  br i1 %14, label %15, label %21

15:                                               ; preds = %6
  %16 = load ptr, ptr %2, align 8
  %17 = getelementptr inbounds nuw %struct.tcp_connection, ptr %16, i32 0, i32 0
  %18 = load ptr, ptr %17, align 8
  call void @bufferevent_free(ptr noundef %18)
  %19 = load ptr, ptr %2, align 8
  %20 = getelementptr inbounds nuw %struct.tcp_connection, ptr %19, i32 0, i32 0
  store ptr null, ptr %20, align 8
  br label %21

21:                                               ; preds = %5, %15, %6
  ret void
}

; Function Attrs: nounwind uwtable
define internal void @disconnect_and_free_connection(ptr noundef %0) #0 {
  %2 = alloca ptr, align 8
  store ptr %0, ptr %2, align 8
  %3 = load ptr, ptr %2, align 8
  %4 = icmp ne ptr %3, null
  br i1 %4, label %6, label %5

5:                                                ; preds = %1
  br label %9

6:                                                ; preds = %1
  %7 = load ptr, ptr %2, align 8
  call void @evdns_tcp_disconnect(ptr noundef %7)
  %8 = load ptr, ptr %2, align 8
  call void @event_mm_free_(ptr noundef %8)
  br label %9

9:                                                ; preds = %6, %5
  ret void
}

; Function Attrs: nounwind uwtable
define internal void @client_tcp_read_packet_cb(ptr noundef %0, ptr noundef %1) #0 {
  %3 = alloca ptr, align 8
  %4 = alloca ptr, align 8
  %5 = alloca ptr, align 8
  %6 = alloca i32, align 4
  %7 = alloca ptr, align 8
  %8 = alloca ptr, align 8
  %9 = alloca i32, align 4
  store ptr %0, ptr %3, align 8
  store ptr %1, ptr %4, align 8
  call void @llvm.lifetime.start.p0(i64 8, ptr %5) #10
  store ptr null, ptr %5, align 8
  call void @llvm.lifetime.start.p0(i64 4, ptr %6) #10
  store i32 0, ptr %6, align 4
  call void @llvm.lifetime.start.p0(i64 8, ptr %7) #10
  %10 = load ptr, ptr %4, align 8
  store ptr %10, ptr %7, align 8
  call void @llvm.lifetime.start.p0(i64 8, ptr %8) #10
  %11 = load ptr, ptr %7, align 8
  %12 = getelementptr inbounds nuw %struct.nameserver, ptr %11, i32 0, i32 1
  %13 = load ptr, ptr %12, align 8
  store ptr %13, ptr %8, align 8
  br label %14

14:                                               ; preds = %2
  br label %15

15:                                               ; preds = %14
  br label %16

16:                                               ; preds = %15
  br label %17

17:                                               ; preds = %16
  %18 = load ptr, ptr %7, align 8
  %19 = getelementptr inbounds nuw %struct.nameserver, ptr %18, i32 0, i32 14
  %20 = load ptr, ptr %19, align 8
  %21 = getelementptr inbounds nuw %struct.evdns_base, ptr %20, i32 0, i32 30
  %22 = load ptr, ptr %21, align 8
  %23 = icmp ne ptr %22, null
  br i1 %23, label %24, label %32

24:                                               ; preds = %17
  %25 = load ptr, ptr getelementptr inbounds nuw (%struct.evthread_lock_callbacks, ptr @evthread_lock_fns_, i32 0, i32 4), align 8
  %26 = load ptr, ptr %7, align 8
  %27 = getelementptr inbounds nuw %struct.nameserver, ptr %26, i32 0, i32 14
  %28 = load ptr, ptr %27, align 8
  %29 = getelementptr inbounds nuw %struct.evdns_base, ptr %28, i32 0, i32 30
  %30 = load ptr, ptr %29, align 8
  %31 = call i32 %25(i32 noundef 0, ptr noundef %30)
  br label %32

32:                                               ; preds = %24, %17
  br label %33

33:                                               ; preds = %32
  br label %34

34:                                               ; preds = %33
  br label %35

35:                                               ; preds = %68, %34
  br label %36

36:                                               ; preds = %35
  %37 = load ptr, ptr %8, align 8
  %38 = call i32 @tcp_read_message(ptr noundef %37, ptr noundef %5, ptr noundef %6)
  %39 = icmp ne i32 %38, 0
  br i1 %39, label %40, label %64

40:                                               ; preds = %36
  %41 = load ptr, ptr %7, align 8
  %42 = getelementptr inbounds nuw %struct.nameserver, ptr %41, i32 0, i32 1
  %43 = load ptr, ptr %42, align 8
  call void @disconnect_and_free_connection(ptr noundef %43)
  %44 = load ptr, ptr %7, align 8
  %45 = getelementptr inbounds nuw %struct.nameserver, ptr %44, i32 0, i32 1
  store ptr null, ptr %45, align 8
  br label %46

46:                                               ; preds = %40
  %47 = load ptr, ptr %7, align 8
  %48 = getelementptr inbounds nuw %struct.nameserver, ptr %47, i32 0, i32 14
  %49 = load ptr, ptr %48, align 8
  %50 = getelementptr inbounds nuw %struct.evdns_base, ptr %49, i32 0, i32 30
  %51 = load ptr, ptr %50, align 8
  %52 = icmp ne ptr %51, null
  br i1 %52, label %53, label %61

53:                                               ; preds = %46
  %54 = load ptr, ptr getelementptr inbounds nuw (%struct.evthread_lock_callbacks, ptr @evthread_lock_fns_, i32 0, i32 5), align 8
  %55 = load ptr, ptr %7, align 8
  %56 = getelementptr inbounds nuw %struct.nameserver, ptr %55, i32 0, i32 14
  %57 = load ptr, ptr %56, align 8
  %58 = getelementptr inbounds nuw %struct.evdns_base, ptr %57, i32 0, i32 30
  %59 = load ptr, ptr %58, align 8
  %60 = call i32 %54(i32 noundef 0, ptr noundef %59)
  br label %61

61:                                               ; preds = %53, %46
  br label %62

62:                                               ; preds = %61
  br label %63

63:                                               ; preds = %62
  store i32 1, ptr %9, align 4
  br label %113

64:                                               ; preds = %36
  %65 = load ptr, ptr %5, align 8
  %66 = icmp ne ptr %65, null
  br i1 %66, label %68, label %67

67:                                               ; preds = %64
  br label %78

68:                                               ; preds = %64
  %69 = load ptr, ptr %7, align 8
  %70 = getelementptr inbounds nuw %struct.nameserver, ptr %69, i32 0, i32 14
  %71 = load ptr, ptr %70, align 8
  %72 = load ptr, ptr %5, align 8
  %73 = load i32, ptr %6, align 4
  %74 = call i32 @reply_parse(ptr noundef %71, ptr noundef %72, i32 noundef %73)
  %75 = load ptr, ptr %5, align 8
  call void @event_mm_free_(ptr noundef %75)
  store ptr null, ptr %5, align 8
  %76 = load ptr, ptr %8, align 8
  %77 = getelementptr inbounds nuw %struct.tcp_connection, ptr %76, i32 0, i32 2
  store i16 0, ptr %77, align 4
  br label %35

78:                                               ; preds = %67
  %79 = load ptr, ptr %3, align 8
  %80 = load ptr, ptr %8, align 8
  %81 = getelementptr inbounds nuw %struct.tcp_connection, ptr %80, i32 0, i32 2
  %82 = load i16, ptr %81, align 4
  %83 = zext i16 %82 to i32
  %84 = icmp ne i32 %83, 0
  br i1 %84, label %85, label %90

85:                                               ; preds = %78
  %86 = load ptr, ptr %8, align 8
  %87 = getelementptr inbounds nuw %struct.tcp_connection, ptr %86, i32 0, i32 2
  %88 = load i16, ptr %87, align 4
  %89 = zext i16 %88 to i64
  br label %91

90:                                               ; preds = %78
  br label %91

91:                                               ; preds = %90, %85
  %92 = phi i64 [ %89, %85 ], [ 2, %90 ]
  call void @bufferevent_setwatermark(ptr noundef %79, i16 noundef signext 2, i64 noundef %92, i64 noundef 0)
  %93 = load ptr, ptr %3, align 8
  %94 = load ptr, ptr %4, align 8
  call void @bufferevent_setcb(ptr noundef %93, ptr noundef @client_tcp_read_packet_cb, ptr noundef null, ptr noundef @client_tcp_event_cb, ptr noundef %94)
  br label %95

95:                                               ; preds = %91
  %96 = load ptr, ptr %7, align 8
  %97 = getelementptr inbounds nuw %struct.nameserver, ptr %96, i32 0, i32 14
  %98 = load ptr, ptr %97, align 8
  %99 = getelementptr inbounds nuw %struct.evdns_base, ptr %98, i32 0, i32 30
  %100 = load ptr, ptr %99, align 8
  %101 = icmp ne ptr %100, null
  br i1 %101, label %102, label %110

102:                                              ; preds = %95
  %103 = load ptr, ptr getelementptr inbounds nuw (%struct.evthread_lock_callbacks, ptr @evthread_lock_fns_, i32 0, i32 5), align 8
  %104 = load ptr, ptr %7, align 8
  %105 = getelementptr inbounds nuw %struct.nameserver, ptr %104, i32 0, i32 14
  %106 = load ptr, ptr %105, align 8
  %107 = getelementptr inbounds nuw %struct.evdns_base, ptr %106, i32 0, i32 30
  %108 = load ptr, ptr %107, align 8
  %109 = call i32 %103(i32 noundef 0, ptr noundef %108)
  br label %110

110:                                              ; preds = %102, %95
  br label %111

111:                                              ; preds = %110
  br label %112

112:                                              ; preds = %111
  store i32 0, ptr %9, align 4
  br label %113

113:                                              ; preds = %112, %63
  call void @llvm.lifetime.end.p0(i64 8, ptr %8) #10
  call void @llvm.lifetime.end.p0(i64 8, ptr %7) #10
  call void @llvm.lifetime.end.p0(i64 4, ptr %6) #10
  call void @llvm.lifetime.end.p0(i64 8, ptr %5) #10
  %114 = load i32, ptr %9, align 4
  switch i32 %114, label %116 [
    i32 0, label %115
    i32 1, label %115
  ]

115:                                              ; preds = %113, %113
  ret void

116:                                              ; preds = %113
  unreachable
}