; Function Attrs: nounwind uwtable
define internal void @client_tcp_read_packet_cb(ptr noundef %0, ptr noundef %1) #2 {
  %3 = alloca ptr, align 8
  %4 = alloca i32, align 4
  call void @llvm.lifetime.start.p0(i64 8, ptr nonnull %3) #21
  store ptr null, ptr %3, align 8
  call void @llvm.lifetime.start.p0(i64 4, ptr nonnull %4) #21
  store i32 0, ptr %4, align 4
  %5 = getelementptr inbounds nuw i8, ptr %1, i64 8
  %6 = load ptr, ptr %5, align 8
  %7 = getelementptr inbounds nuw i8, ptr %1, i64 432
  %8 = load ptr, ptr %7, align 8
  %9 = getelementptr inbounds nuw i8, ptr %8, i64 344
  %10 = load ptr, ptr %9, align 8
  %.not = icmp eq ptr %10, null
  br i1 %.not, label %14, label %11

11:                                               ; preds = %2
  %12 = load ptr, ptr getelementptr inbounds nuw (i8, ptr @evthread_lock_fns_, i64 24), align 8
  %13 = tail call i32 %12(i32 noundef 0, ptr noundef nonnull %10) #21
  br label %14

14:                                               ; preds = %11, %2
  %15 = call fastcc i32 @tcp_read_message(ptr noundef %6, ptr noundef %3, ptr noundef %4)
  %.not2126 = icmp eq i32 %15, 0
  br i1 %.not2126, label %.lr.ph, label %._crit_edge

.lr.ph:                                           ; preds = %14
  %16 = getelementptr inbounds nuw i8, ptr %6, i64 12
  br label %26

._crit_edge:                                      ; preds = %28, %14
  %17 = load ptr, ptr %5, align 8
  %.not.i = icmp eq ptr %17, null
  br i1 %.not.i, label %disconnect_and_free_connection.exit, label %18

18:                                               ; preds = %._crit_edge
  %19 = getelementptr inbounds nuw i8, ptr %17, i64 8
  store i32 0, ptr %19, align 8
  %20 = getelementptr inbounds nuw i8, ptr %17, i64 12
  store i16 0, ptr %20, align 4
  %21 = load ptr, ptr %17, align 8
  %.not.i.i = icmp eq ptr %21, null
  br i1 %.not.i.i, label %evdns_tcp_disconnect.exit.i, label %22

22:                                               ; preds = %18
  tail call void @bufferevent_free(ptr noundef nonnull %21) #21
  store ptr null, ptr %17, align 8
  br label %evdns_tcp_disconnect.exit.i

evdns_tcp_disconnect.exit.i:                      ; preds = %22, %18
  tail call void @event_mm_free_(ptr noundef nonnull %17) #21
  br label %disconnect_and_free_connection.exit

disconnect_and_free_connection.exit:              ; preds = %._crit_edge, %evdns_tcp_disconnect.exit.i
  store ptr null, ptr %5, align 8
  %23 = load ptr, ptr %7, align 8
  %24 = getelementptr inbounds nuw i8, ptr %23, i64 344
  %25 = load ptr, ptr %24, align 8
  %.not25 = icmp eq ptr %25, null
  br i1 %.not25, label %39, label %.sink.split

26:                                               ; preds = %.lr.ph, %28
  %27 = load ptr, ptr %3, align 8
  %.not22 = icmp eq ptr %27, null
  br i1 %.not22, label %32, label %28

28:                                               ; preds = %26
  %29 = load ptr, ptr %7, align 8
  %30 = load i32, ptr %4, align 4
  tail call fastcc void @reply_parse(ptr noundef %29, ptr noundef nonnull %27, i32 noundef %30)
  tail call void @event_mm_free_(ptr noundef nonnull %27) #21
  store ptr null, ptr %3, align 8
  store i16 0, ptr %16, align 4
  %31 = call fastcc i32 @tcp_read_message(ptr noundef %6, ptr noundef %3, ptr noundef %4)
  %.not21 = icmp eq i32 %31, 0
  br i1 %.not21, label %26, label %._crit_edge

32:                                               ; preds = %26
  %33 = load i16, ptr %16, align 4
  %.not23 = icmp eq i16 %33, 0
  %narrow = select i1 %.not23, i16 2, i16 %33
  %spec.select = zext i16 %narrow to i64
  tail call void @bufferevent_setwatermark(ptr noundef %0, i16 noundef signext 2, i64 noundef %spec.select, i64 noundef 0) #21
  tail call void @bufferevent_setcb(ptr noundef %0, ptr noundef nonnull @client_tcp_read_packet_cb, ptr noundef null, ptr noundef nonnull @client_tcp_event_cb, ptr noundef nonnull %1) #21
  %34 = load ptr, ptr %7, align 8
  %35 = getelementptr inbounds nuw i8, ptr %34, i64 344
  %36 = load ptr, ptr %35, align 8
  %.not24 = icmp eq ptr %36, null
  br i1 %.not24, label %39, label %.sink.split

.sink.split:                                      ; preds = %32, %disconnect_and_free_connection.exit
  %.sink = phi ptr [ %25, %disconnect_and_free_connection.exit ], [ %36, %32 ]
  %37 = load ptr, ptr getelementptr inbounds nuw (i8, ptr @evthread_lock_fns_, i64 32), align 8
  %38 = tail call i32 %37(i32 noundef 0, ptr noundef nonnull %.sink) #21
  br label %39

39:                                               ; preds = %.sink.split, %32, %disconnect_and_free_connection.exit
  call void @llvm.lifetime.end.p0(i64 4, ptr nonnull %4) #21
  call void @llvm.lifetime.end.p0(i64 8, ptr nonnull %3) #21
  ret void
}